; Function Attrs: mustprogress nofree norecurse nosync nounwind willreturn memory(argmem: readwrite) uwtable
define internal noundef ptr @nop_descr_get(ptr noundef returned %0, ptr readnone captures(none) %1, ptr readnone captures(none) %2) #4 {
  %4 = load i32, ptr %0, align 8, !tbaa !35
  %5 = icmp slt i32 %4, 0
  br i1 %5, label %_Py_NewRef.exit, label %6

6:                                                ; preds = %3
  %7 = add nuw i32 %4, 1
  store i32 %7, ptr %0, align 8, !tbaa !35
  br label %_Py_NewRef.exit

_Py_NewRef.exit:                                  ; preds = %3, %6
  ret ptr %0
}